; ModuleID = 'source-C-CXX/61/2037.cpp'
source_filename = "source-C-CXX/61/2037.cpp"
target datalayout = "e-m:e-p270:32:32-p271:32:32-p272:64:64-i64:64-f80:128-n8:16:32:64-S128"
target triple = "x86_64-pc-linux-gnu"

%"class.std::ios_base::Init" = type { i8 }
%"class.std::basic_istream" = type { i32 (...)**, i64, %"class.std::basic_ios" }
%"class.std::basic_ios" = type { %"class.std::ios_base", %"class.std::basic_ostream"*, i8, i8, %"class.std::basic_streambuf"*, %"class.std::ctype"*, %"class.std::num_put"*, %"class.std::num_get"* }
%"class.std::ios_base" = type { i32 (...)**, i64, i64, i32, i32, i32, %"struct.std::ios_base::_Callback_list"*, %"struct.std::ios_base::_Words", [8 x %"struct.std::ios_base::_Words"], i32, %"struct.std::ios_base::_Words"*, %"class.std::locale" }
%"struct.std::ios_base::_Callback_list" = type { %"struct.std::ios_base::_Callback_list"*, void (i32, %"class.std::ios_base"*, i32)*, i32, i32 }
%"struct.std::ios_base::_Words" = type { i8*, i64 }
%"class.std::locale" = type { %"class.std::locale::_Impl"* }
%"class.std::locale::_Impl" = type { i32, %"class.std::locale::facet"**, i64, %"class.std::locale::facet"**, i8** }
%"class.std::locale::facet" = type <{ i32 (...)**, i32, [4 x i8] }>
%"class.std::basic_ostream" = type { i32 (...)**, %"class.std::basic_ios" }
%"class.std::basic_streambuf" = type { i32 (...)**, i8*, i8*, i8*, i8*, i8*, i8*, %"class.std::locale" }
%"class.std::ctype" = type <{ %"class.std::locale::facet.base", [4 x i8], %struct.__locale_struct*, i8, [7 x i8], i32*, i32*, i16*, i8, [256 x i8], [256 x i8], i8, [6 x i8] }>
%"class.std::locale::facet.base" = type <{ i32 (...)**, i32 }>
%struct.__locale_struct = type { [13 x %struct.__locale_data*], i16*, i32*, i32*, [13 x i8*] }
%struct.__locale_data = type opaque
%"class.std::num_put" = type { %"class.std::locale::facet.base", [4 x i8] }
%"class.std::num_get" = type { %"class.std::locale::facet.base", [4 x i8] }

@_ZStL8__ioinit = internal global %"class.std::ios_base::Init" zeroinitializer, align 1
@__dso_handle = external hidden global i8
@_ZSt3cin = external global %"class.std::basic_istream", align 8
@_ZSt4cout = external global %"class.std::basic_ostream", align 8
@llvm.global_ctors = appending global [1 x { i32, void ()*, i8* }] [{ i32, void ()*, i8* } { i32 65535, void ()* @_GLOBAL__sub_I_2037.cpp, i8* null }]

declare void @_ZNSt8ios_base4InitC1Ev(%"class.std::ios_base::Init"* nonnull align 1 dereferenceable(1)) unnamed_addr #0

; Function Attrs: nounwind
declare void @_ZNSt8ios_base4InitD1Ev(%"class.std::ios_base::Init"* nonnull align 1 dereferenceable(1)) unnamed_addr #1

; Function Attrs: nofree nounwind
declare i32 @__cxa_atexit(void (i8*)*, i8*, i8*) local_unnamed_addr #2

; Function Attrs: mustprogress norecurse sspstrong uwtable
define dso_local i32 @main() local_unnamed_addr #3 {
  %1 = alloca [300 x i8], align 16
  %2 = getelementptr inbounds [300 x i8], [300 x i8]* %1, i64 0, i64 0
  call void @llvm.lifetime.start.p0i8(i64 300, i8* nonnull %2) #8
  %3 = load i8*, i8** bitcast (%"class.std::basic_istream"* @_ZSt3cin to i8**), align 8, !tbaa !5
  %4 = getelementptr i8, i8* %3, i64 -24
  %5 = bitcast i8* %4 to i64*
  %6 = load i64, i64* %5, align 8
  %7 = add nsw i64 %6, 240
  %8 = getelementptr inbounds i8, i8* bitcast (%"class.std::basic_istream"* @_ZSt3cin to i8*), i64 %7
  %9 = bitcast i8* %8 to %"class.std::ctype"**
  %10 = load %"class.std::ctype"*, %"class.std::ctype"** %9, align 8, !tbaa !8
  %11 = icmp eq %"class.std::ctype"* %10, null
  br i1 %11, label %12, label %13

12:                                               ; preds = %0
  tail call void @_ZSt16__throw_bad_castv() #9
  unreachable

13:                                               ; preds = %0
  %14 = getelementptr inbounds %"class.std::ctype", %"class.std::ctype"* %10, i64 0, i32 8
  %15 = load i8, i8* %14, align 8, !tbaa !13
  %16 = icmp eq i8 %15, 0
  br i1 %16, label %20, label %17

17:                                               ; preds = %13
  %18 = getelementptr inbounds %"class.std::ctype", %"class.std::ctype"* %10, i64 0, i32 9, i64 10
  %19 = load i8, i8* %18, align 1, !tbaa !15
  br label %26

20:                                               ; preds = %13
  tail call void @_ZNKSt5ctypeIcE13_M_widen_initEv(%"class.std::ctype"* nonnull align 8 dereferenceable(570) %10)
  %21 = bitcast %"class.std::ctype"* %10 to i8 (%"class.std::ctype"*, i8)***
  %22 = load i8 (%"class.std::ctype"*, i8)**, i8 (%"class.std::ctype"*, i8)*** %21, align 8, !tbaa !5
  %23 = getelementptr inbounds i8 (%"class.std::ctype"*, i8)*, i8 (%"class.std::ctype"*, i8)** %22, i64 6
  %24 = load i8 (%"class.std::ctype"*, i8)*, i8 (%"class.std::ctype"*, i8)** %23, align 8
  %25 = tail call signext i8 %24(%"class.std::ctype"* nonnull align 8 dereferenceable(570) %10, i8 signext 10)
  br label %26

26:                                               ; preds = %17, %20
  %27 = phi i8 [ %19, %17 ], [ %25, %20 ]
  %28 = call nonnull align 8 dereferenceable(16) %"class.std::basic_istream"* @_ZNSi7getlineEPclc(%"class.std::basic_istream"* nonnull align 8 dereferenceable(16) @_ZSt3cin, i8* nonnull %2, i64 300, i8 signext %27)
  br label %31

29:                                               ; preds = %36
  %30 = getelementptr inbounds i8, i8* %32, i64 1
  br label %48

31:                                               ; preds = %48, %26
  %32 = phi i8* [ %2, %26 ], [ %49, %48 ]
  %33 = getelementptr inbounds i8, i8* %32, i64 1
  br label %34

34:                                               ; preds = %40, %31
  %35 = load i8, i8* %32, align 1, !tbaa !15
  switch i8 %35, label %46 [
    i8 0, label %50
    i8 32, label %36
  ]

36:                                               ; preds = %34
  %37 = load i8, i8* %33, align 1, !tbaa !15
  %38 = icmp eq i8 %37, 32
  br i1 %38, label %39, label %29, !llvm.loop !16

39:                                               ; preds = %36
  store i8 32, i8* %32, align 1, !tbaa !15
  br label %40

40:                                               ; preds = %39, %40
  %41 = phi i8* [ %32, %39 ], [ %42, %40 ]
  %42 = getelementptr inbounds i8, i8* %41, i64 1
  %43 = getelementptr inbounds i8, i8* %41, i64 2
  %44 = load i8, i8* %43, align 1, !tbaa !15
  store i8 %44, i8* %42, align 1, !tbaa !15
  %45 = icmp eq i8 %44, 0
  br i1 %45, label %34, label %40, !llvm.loop !16

46:                                               ; preds = %34
  %47 = getelementptr inbounds i8, i8* %32, i64 1
  br label %48

48:                                               ; preds = %46, %29
  %49 = phi i8* [ %47, %46 ], [ %30, %29 ]
  br label %31, !llvm.loop !16

50:                                               ; preds = %34
  %51 = call i64 @strlen(i8* noundef nonnull dereferenceable(1) %2) #8
  %52 = call nonnull align 8 dereferenceable(8) %"class.std::basic_ostream"* @_ZSt16__ostream_insertIcSt11char_traitsIcEERSt13basic_ostreamIT_T0_ES6_PKS3_l(%"class.std::basic_ostream"* nonnull align 8 dereferenceable(8) @_ZSt4cout, i8* nonnull %2, i64 %51)
  call void @llvm.lifetime.end.p0i8(i64 300, i8* nonnull %2) #8
  ret i32 0
}

; Function Attrs: argmemonly mustprogress nofree nosync nounwind willreturn
declare void @llvm.lifetime.start.p0i8(i64 immarg, i8* nocapture) #4

; Function Attrs: argmemonly mustprogress nofree nosync nounwind willreturn
declare void @llvm.lifetime.end.p0i8(i64 immarg, i8* nocapture) #4

declare nonnull align 8 dereferenceable(16) %"class.std::basic_istream"* @_ZNSi7getlineEPclc(%"class.std::basic_istream"* nonnull align 8 dereferenceable(16), i8*, i64, i8 signext) local_unnamed_addr #0

; Function Attrs: noreturn
declare void @_ZSt16__throw_bad_castv() local_unnamed_addr #5

declare void @_ZNKSt5ctypeIcE13_M_widen_initEv(%"class.std::ctype"* nonnull align 8 dereferenceable(570)) local_unnamed_addr #0

declare nonnull align 8 dereferenceable(8) %"class.std::basic_ostream"* @_ZSt16__ostream_insertIcSt11char_traitsIcEERSt13basic_ostreamIT_T0_ES6_PKS3_l(%"class.std::basic_ostream"* nonnull align 8 dereferenceable(8), i8*, i64) local_unnamed_addr #0

; Function Attrs: argmemonly mustprogress nofree nounwind readonly willreturn
declare i64 @strlen(i8* nocapture) local_unnamed_addr #6

; Function Attrs: sspstrong uwtable
define internal void @_GLOBAL__sub_I_2037.cpp() #7 section ".text.startup" {
  tail call void @_ZNSt8ios_base4InitC1Ev(%"class.std::ios_base::Init"* nonnull align 1 dereferenceable(1) @_ZStL8__ioinit)
  %1 = tail call i32 @__cxa_atexit(void (i8*)* bitcast (void (%"class.std::ios_base::Init"*)* @_ZNSt8ios_base4InitD1Ev to void (i8*)*), i8* getelementptr inbounds (%"class.std::ios_base::Init", %"class.std::ios_base::Init"* @_ZStL8__ioinit, i64 0, i32 0), i8* nonnull @__dso_handle) #8
  ret void
}


!llvm.module.flags = !{!0, !1, !2, !3}
!llvm.ident = !{!4}

!0 = !{i32 1, !"wchar_size", i32 4}
!1 = !{i32 7, !"PIC Level", i32 2}
!2 = !{i32 7, !"PIE Level", i32 2}
!3 = !{i32 7, !"uwtable", i32 1}
!4 = !{!"clang version 13.0.0"}
!5 = !{!6, !6, i64 0}
!6 = !{!"vtable pointer", !7, i64 0}
!7 = !{!"Simple C++ TBAA"}
!8 = !{!9, !10, i64 240}
!9 = !{!"_ZTSSt9basic_iosIcSt11char_traitsIcEE", !10, i64 216, !11, i64 224, !12, i64 225, !10, i64 232, !10, i64 240, !10, i64 248, !10, i64 256}
!10 = !{!"any pointer", !11, i64 0}
!11 = !{!"omnipotent char", !7, i64 0}
!12 = !{!"bool", !11, i64 0}
!13 = !{!14, !11, i64 56}
!14 = !{!"_ZTSSt5ctypeIcE", !10, i64 16, !12, i64 24, !10, i64 32, !10, i64 40, !10, i64 48, !11, i64 56, !11, i64 57, !11, i64 313, !11, i64 569}
!15 = !{!11, !11, i64 0}
!16 = distinct !{!16, !17}
!17 = !{!"llvm.loop.mustprogress"}
